(lp1
S'September 03 2016'
p2
aS'September 03 2016'
p3
aS'September 02 2016'
p4
aS'September 02 2016'
p5
aS'August 29 2016'
p6
aS'August 29 2016'
p7
aS'August 26 2016'
p8
aS'August 22 2016'
p9
aS'August 18 2016'
p10
aS'August 15 2016'
p11
aS'August 12 2016'
p12
aS'August 09 2016'
p13
aS'August 08 2016'
p14
aS'August 07 2016'
p15
aS'August 06 2016'
p16
aS'July 31 2016'
p17
aS'July 25 2016'
p18
aS'July 23 2016'
p19
aS'July 23 2016'
p20
aS'July 22 2016'
p21
aS'July 22 2016'
p22
aS'July 21 2016'
p23
aS'July 18 2016'
p24
aS'July 16 2016'
p25
aS'July 11 2016'
p26
aS'July 11 2016'
p27
aS'July 11 2016'
p28
aS'July 08 2016'
p29
aS'July 08 2016'
p30
aS'July 07 2016'
p31
aS'July 03 2016'
p32
aS'June 26 2016'
p33
aS'June 25 2016'
p34
aS'June 24 2016'
p35
aS'June 21 2016'
p36
aS'June 18 2016'
p37
aS'June 17 2016'
p38
aS'June 09 2016'
p39
aS'June 08 2016'
p40
aS'June 08 2016'
p41
aS'June 04 2016'
p42
aS'May 28 2016'
p43
aS'May 28 2016'
p44
aS'May 27 2016'
p45
aS'May 27 2016'
p46
aS'May 24 2016'
p47
aS'May 23 2016'
p48
aS'May 23 2016'
p49
aS'May 23 2016'
p50
aS'May 14 2016'
p51
aS'May 13 2016'
p52
aS'May 01 2016'
p53
aS'May 01 2016'
p54
aS'April 28 2016'
p55
aS'April 24 2016'
p56
aS'April 24 2016'
p57
aS'April 21 2016'
p58
aS'April 19 2016'
p59
aS'April 19 2016'
p60
aS'April 17 2016'
p61
aS'April 14 2016'
p62
aS'April 14 2016'
p63
aS'April 14 2016'
p64
aS'April 12 2016'
p65
aS'April 11 2016'
p66
aS'April 10 2016'
p67
aS'April 07 2016'
p68
aS'April 05 2016'
p69
aS'April 02 2016'
p70
aS'April 02 2016'
p71
aS'March 31 2016'
p72
aS'March 30 2016'
p73
aS'March 28 2016'
p74
aS'March 27 2016'
p75
aS'March 26 2016'
p76
aS'March 23 2016'
p77
aS'March 21 2016'
p78
aS'March 19 2016'
p79
aS'March 17 2016'
p80
aS'March 12 2016'
p81
aS'March 12 2016'
p82
aS'March 12 2016'
p83
aS'March 11 2016'
p84
aS'March 09 2016'
p85
aS'March 06 2016'
p86
aS'March 04 2016'
p87
aS'March 04 2016'
p88
aS'March 03 2016'
p89
aS'February 29 2016'
p90
aS'February 28 2016'
p91
aS'February 27 2016'
p92
aS'February 25 2016'
p93
aS'February 23 2016'
p94
aS'February 22 2016'
p95
aS'February 21 2016'
p96
aS'February 21 2016'
p97
aS'February 21 2016'
p98
aS'February 20 2016'
p99
aS'February 18 2016'
p100
aS'February 14 2016'
p101
aS'February 13 2016'
p102
aS'February 13 2016'
p103
aS'February 12 2016'
p104
aS'February 07 2016'
p105
aS'February 07 2016'
p106
aS'February 07 2016'
p107
aS'February 05 2016'
p108
aS'February 05 2016'
p109
aS'February 05 2016'
p110
aS'February 05 2016'
p111
aS'February 02 2016'
p112
aS'February 02 2016'
p113
aS'February 02 2016'
p114
aS'January 29 2016'
p115
aS'January 28 2016'
p116
aS'January 25 2016'
p117
aS'January 24 2016'
p118
aS'January 22 2016'
p119
aS'January 22 2016'
p120
aS'January 22 2016'
p121
aS'January 19 2016'
p122
aS'January 19 2016'
p123
aS'January 19 2016'
p124
aS'January 18 2016'
p125
aS'January 16 2016'
p126
aS'January 14 2016'
p127
aS'January 12 2016'
p128
aS'January 10 2016'
p129
aS'January 03 2016'
p130
aS'January 03 2016'
p131
aS'January 03 2016'
p132
aS'January 02 2016'
p133
aS'January 02 2016'
p134
aS'December 31 2015'
p135
aS'December 29 2015'
p136
aS'December 27 2015'
p137
aS'December 25 2015'
p138
aS'December 25 2015'
p139
aS'December 24 2015'
p140
aS'December 21 2015'
p141
aS'December 15 2015'
p142
aS'December 11 2015'
p143
aS'December 10 2015'
p144
aS'December 06 2015'
p145
aS'December 04 2015'
p146
aS'December 03 2015'
p147
aS'December 01 2015'
p148
aS'November 30 2015'
p149
aS'November 30 2015'
p150
aS'November 30 2015'
p151
aS'November 27 2015'
p152
aS'November 26 2015'
p153
aS'November 24 2015'
p154
aS'November 24 2015'
p155
aS'November 23 2015'
p156
aS'November 23 2015'
p157
aS'November 22 2015'
p158
aS'November 22 2015'
p159
aS'November 22 2015'
p160
aS'November 21 2015'
p161
aS'November 21 2015'
p162
aS'November 19 2015'
p163
aS'November 18 2015'
p164
aS'November 15 2015'
p165
aS'November 15 2015'
p166
aS'November 15 2015'
p167
aS'November 15 2015'
p168
aS'November 13 2015'
p169
aS'November 12 2015'
p170
aS'November 12 2015'
p171
aS'November 12 2015'
p172
aS'November 12 2015'
p173
aS'November 09 2015'
p174
aS'November 07 2015'
p175
aS'November 07 2015'
p176
aS'November 06 2015'
p177
aS'November 05 2015'
p178
aS'November 05 2015'
p179
aS'November 05 2015'
p180
aS'November 02 2015'
p181
aS'November 02 2015'
p182
aS'November 01 2015'
p183
aS'November 01 2015'
p184
aS'October 31 2015'
p185
aS'October 30 2015'
p186
aS'October 29 2015'
p187
aS'October 29 2015'
p188
aS'October 25 2015'
p189
aS'October 25 2015'
p190
aS'October 23 2015'
p191
aS'October 22 2015'
p192
aS'October 22 2015'
p193
aS'October 19 2015'
p194
aS'October 16 2015'
p195
aS'October 15 2015'
p196
aS'October 12 2015'
p197
aS'October 11 2015'
p198
aS'October 09 2015'
p199
aS'October 08 2015'
p200
aS'October 08 2015'
p201
aS'October 08 2015'
p202
aS'October 08 2015'
p203
aS'October 06 2015'
p204
aS'October 05 2015'
p205
aS'October 02 2015'
p206
aS'October 02 2015'
p207
aS'September 28 2015'
p208
aS'September 28 2015'
p209
aS'September 27 2015'
p210
aS'September 27 2015'
p211
aS'September 27 2015'
p212
aS'September 26 2015'
p213
aS'September 26 2015'
p214
aS'September 25 2015'
p215
aS'September 23 2015'
p216
aS'September 23 2015'
p217
aS'September 20 2015'
p218
aS'September 18 2015'
p219
aS'September 18 2015'
p220
aS'September 15 2015'
p221
aS'September 11 2015'
p222
aS'September 11 2015'
p223
aS'September 11 2015'
p224
aS'September 11 2015'
p225
aS'September 10 2015'
p226
aS'September 10 2015'
p227
aS'September 07 2015'
p228
aS'September 06 2015'
p229
aS'September 05 2015'
p230
aS'September 04 2015'
p231
aS'September 04 2015'
p232
aS'September 03 2015'
p233
aS'September 01 2015'
p234
aS'August 31 2015'
p235
aS'August 30 2015'
p236
aS'August 27 2015'
p237
aS'August 26 2015'
p238
aS'August 24 2015'
p239
aS'August 21 2015'
p240
aS'August 21 2015'
p241
aS'August 18 2015'
p242
aS'August 18 2015'
p243
aS'August 17 2015'
p244
aS'August 17 2015'
p245
aS'August 15 2015'
p246
aS'August 09 2015'
p247
aS'August 07 2015'
p248
aS'August 05 2015'
p249
aS'August 03 2015'
p250
aS'July 27 2015'
p251
aS'July 26 2015'
p252
aS'July 25 2015'
p253
aS'July 25 2015'
p254
aS'July 25 2015'
p255
aS'July 23 2015'
p256
aS'July 21 2015'
p257
aS'July 20 2015'
p258
aS'July 17 2015'
p259
aS'July 15 2015'
p260
aS'July 13 2015'
p261
aS'July 13 2015'
p262
aS'July 12 2015'
p263
aS'July 11 2015'
p264
aS'July 10 2015'
p265
aS'July 09 2015'
p266
aS'July 09 2015'
p267
aS'July 09 2015'
p268
aS'July 08 2015'
p269
aS'July 07 2015'
p270
aS'July 07 2015'
p271
aS'July 06 2015'
p272
aS'July 01 2015'
p273
aS'June 28 2015'
p274
aS'June 28 2015'
p275
aS'June 25 2015'
p276
aS'June 21 2015'
p277
aS'June 21 2015'
p278
aS'June 19 2015'
p279
aS'June 07 2015'
p280
aS'June 07 2015'
p281
aS'June 06 2015'
p282
aS'June 05 2015'
p283
aS'May 31 2015'
p284
aS'May 26 2015'
p285
aS'May 22 2015'
p286
aS'May 19 2015'
p287
aS'May 19 2015'
p288
aS'May 18 2015'
p289
aS'May 18 2015'
p290
aS'May 17 2015'
p291
aS'May 17 2015'
p292
aS'May 17 2015'
p293
aS'May 17 2015'
p294
aS'May 16 2015'
p295
aS'May 16 2015'
p296
aS'May 16 2015'
p297
aS'May 15 2015'
p298
aS'May 15 2015'
p299
aS'May 15 2015'
p300
aS'May 15 2015'
p301
aS'May 10 2015'
p302
aS'May 09 2015'
p303
aS'May 09 2015'
p304
aS'May 09 2015'
p305
aS'May 04 2015'
p306
aS'April 28 2015'
p307
aS'April 26 2015'
p308
aS'April 25 2015'
p309
aS'April 24 2015'
p310
aS'April 23 2015'
p311
aS'April 23 2015'
p312
aS'April 21 2015'
p313
aS'April 20 2015'
p314
aS'April 20 2015'
p315
aS'April 19 2015'
p316
aS'April 16 2015'
p317
aS'April 15 2015'
p318
aS'April 14 2015'
p319
aS'April 13 2015'
p320
aS'April 13 2015'
p321
aS'April 12 2015'
p322
aS'April 12 2015'
p323
aS'April 11 2015'
p324
aS'April 10 2015'
p325
aS'April 10 2015'
p326
aS'April 08 2015'
p327
aS'April 06 2015'
p328
aS'April 05 2015'
p329
aS'April 03 2015'
p330
aS'April 02 2015'
p331
aS'April 01 2015'
p332
aS'March 27 2015'
p333
aS'March 27 2015'
p334
aS'March 23 2015'
p335
aS'March 22 2015'
p336
aS'March 14 2015'
p337
aS'March 14 2015'
p338
aS'March 13 2015'
p339
aS'March 13 2015'
p340
aS'March 13 2015'
p341
aS'March 13 2015'
p342
aS'March 12 2015'
p343
aS'March 12 2015'
p344
aS'March 12 2015'
p345
aS'March 12 2015'
p346
aS'March 12 2015'
p347
aS'March 11 2015'
p348
aS'March 11 2015'
p349
aS'March 09 2015'
p350
aS'March 08 2015'
p351
aS'March 03 2015'
p352
aS'March 01 2015'
p353
aS'February 28 2015'
p354
aS'February 27 2015'
p355
aS'February 26 2015'
p356
aS'February 23 2015'
p357
aS'February 23 2015'
p358
aS'February 23 2015'
p359
aS'February 22 2015'
p360
aS'February 20 2015'
p361
aS'February 19 2015'
p362
aS'February 18 2015'
p363
aS'February 18 2015'
p364
aS'February 17 2015'
p365
aS'February 16 2015'
p366
aS'February 15 2015'
p367
aS'February 14 2015'
p368
aS'February 14 2015'
p369
aS'February 03 2015'
p370
aS'November 12 2014'
p371
aS'November 12 2014'
p372
aS'November 09 2014'
p373
aS'November 08 2014'
p374
aS'November 08 2014'
p375
aS'November 07 2014'
p376
aS'November 02 2014'
p377
aS'October 31 2014'
p378
aS'October 28 2014'
p379
aS'October 23 2014'
p380
aS'October 20 2014'
p381
aS'October 16 2014'
p382
aS'October 14 2014'
p383
aS'October 14 2014'
p384
aS'October 13 2014'
p385
aS'October 03 2014'
p386
aS'October 03 2014'
p387
aS'October 02 2014'
p388
aS'September 29 2014'
p389
aS'September 28 2014'
p390
aS'September 27 2014'
p391
aS'September 27 2014'
p392
aS'September 25 2014'
p393
aS'September 24 2014'
p394
aS'September 18 2014'
p395
aS'September 08 2014'
p396
aS'September 05 2014'
p397
aS'September 05 2014'
p398
aS'September 02 2014'
p399
aS'September 02 2014'
p400
aS'September 02 2014'
p401
aS'September 02 2014'
p402
aS'September 01 2014'
p403
aS'September 01 2014'
p404
aS'September 01 2014'
p405
aS'September 01 2014'
p406
aS'August 22 2014'
p407
aS'August 21 2014'
p408
aS'August 21 2014'
p409
aS'August 21 2014'
p410
aS'August 20 2014'
p411
aS'August 19 2014'
p412
aS'August 16 2014'
p413
aS'August 16 2014'
p414
aS'August 16 2014'
p415
aS'August 12 2014'
p416
aS'August 12 2014'
p417
aS'August 12 2014'
p418
aS'August 12 2014'
p419
aS'August 09 2014'
p420
aS'August 03 2014'
p421
aS'August 03 2014'
p422
aS'August 02 2014'
p423
aS'July 30 2014'
p424
aS'July 16 2014'
p425
aS'July 16 2014'
p426
aS'July 15 2014'
p427
aS'July 08 2014'
p428
aS'July 05 2014'
p429
aS'July 04 2014'
p430
aS'July 04 2014'
p431
aS'June 16 2014'
p432
aS'June 14 2014'
p433
aS'June 11 2014'
p434
aS'June 06 2014'
p435
aS'February 14 2014'
p436
aS'January 26 2014'
p437
aS'January 23 2014'
p438
aS'January 19 2014'
p439
aS'January 12 2014'
p440
aS'January 10 2014'
p441
aS'January 05 2014'
p442
aS'December 20 2013'
p443
aS'December 19 2013'
p444
aS'December 15 2013'
p445
aS'December 01 2013'
p446
aS'November 30 2013'
p447
aS'November 29 2013'
p448
aS'November 21 2013'
p449
aS'November 17 2013'
p450
aS'November 07 2013'
p451
aS'September 25 2013'
p452
aS'September 15 2013'
p453
aS'September 11 2013'
p454
aS'September 09 2013'
p455
aS'September 07 2013'
p456
aS'September 05 2013'
p457
aS'August 23 2013'
p458
aS'August 17 2013'
p459
aS'August 15 2013'
p460
aS'July 24 2013'
p461
aS'July 14 2013'
p462
aS'June 29 2013'
p463
aS'June 29 2013'
p464
aS'June 27 2013'
p465
aS'June 24 2013'
p466
aS'June 18 2013'
p467
aS'June 17 2013'
p468
aS'June 09 2013'
p469
aS'May 30 2013'
p470
aS'May 24 2013'
p471
aS'May 16 2013'
p472
aS'May 13 2013'
p473
aS'May 05 2013'
p474
aS'May 02 2013'
p475
aS'April 27 2013'
p476
aS'April 26 2013'
p477
aS'April 24 2013'
p478
aS'April 06 2013'
p479
aS'March 28 2013'
p480
aS'March 21 2013'
p481
aS'March 20 2013'
p482
aS'March 10 2013'
p483
aS'February 16 2013'
p484
aS'February 06 2013'
p485
aS'January 18 2013'
p486
aS'January 13 2013'
p487
aS'January 12 2013'
p488
aS'January 11 2013'
p489
aS'December 27 2012'
p490
aS'November 29 2012'
p491
aS'November 19 2012'
p492
aS'October 29 2012'
p493
aS'September 25 2012'
p494
aS'September 23 2012'
p495
aS'September 20 2012'
p496
aS'September 16 2012'
p497
aS'September 09 2012'
p498
aS'September 08 2012'
p499
aS'September 06 2012'
p500
aS'September 04 2012'
p501
aS'September 03 2012'
p502
aS'August 27 2012'
p503
aS'August 26 2012'
p504
aS'August 25 2012'
p505
aS'September 07 2013'
p506
aS'September 05 2013'
p507
aS'August 23 2013'
p508
aS'August 17 2013'
p509
aS'August 15 2013'
p510
aS'August 11 2013'
p511
aS'July 24 2013'
p512
aS'July 14 2013'
p513
aS'June 29 2013'
p514
aS'June 29 2013'
p515
aS'June 27 2013'
p516
aS'June 24 2013'
p517
aS'June 18 2013'
p518
aS'June 17 2013'
p519
aS'June 09 2013'
p520
aS'June 05 2013'
p521
aS'May 30 2013'
p522
aS'May 24 2013'
p523
aS'May 16 2013'
p524
aS'May 13 2013'
p525
aS'May 05 2013'
p526
aS'May 02 2013'
p527
aS'April 27 2013'
p528
aS'April 26 2013'
p529
aS'April 24 2013'
p530
aS'April 09 2013'
p531
aS'April 06 2013'
p532
aS'March 28 2013'
p533
aS'March 21 2013'
p534
aS'March 20 2013'
p535
aS'March 10 2013'
p536
aS'February 16 2013'
p537
aS'February 06 2013'
p538
aS'January 18 2013'
p539
aS'January 13 2013'
p540
aS'January 12 2013'
p541
aS'January 12 2013'
p542
aS'January 11 2013'
p543
aS'December 27 2012'
p544
aS'November 29 2012'
p545
aS'November 19 2012'
p546
aS'October 29 2012'
p547
aS'September 25 2012'
p548
aS'September 23 2012'
p549
aS'September 20 2012'
p550
aS'September 18 2012'
p551
aS'September 16 2012'
p552
aS'September 09 2012'
p553
aS'September 08 2012'
p554
aS'September 06 2012'
p555
aS'September 04 2012'
p556
aS'September 03 2012'
p557
aS'August 27 2012'
p558
aS'August 26 2012'
p559
aS'August 25 2012'
p560
aS'August 15 2012'
p561
aS'August 15 2012'
p562
aS'August 14 2012'
p563
aS'August 12 2012'
p564
aS'August 03 2012'
p565
aS'August 02 2012'
p566
aS'July 30 2012'
p567
aS'July 23 2012'
p568
a.