(lp0
(S'2014 06 14'
p1
S'dedication of ins vikrmaditya to country'
p2
F0.6146993318485524
tp3
a(S'2014 07 15'
p4
S'brics summit , sustainable development and growth'
p5
F0.751497005988024
tp6
a(S'2014 07 16'
p7
S'brics business council'
p8
F0.7755102040816326
tp9
a(S'2014 07 16'
p10
S'brics summit'
p11
F0.6434599156118144
tp12
a(S'2014 07 16'
p13
S'brics summit , meeting with south american leaders'
p14
F0.6437659033078881
tp15
a(S'2014 08 02'
p16
S'prior to nepal visit'
p17
F0.7224489795918367
tp18
a(S'2014 08 12'
p19
S'address to soldiers , officers , warriors at leh'
p20
F0.551605504587156
tp21
a(S'2014 08 12'
p22
S'outstanding parliamentary awards ceremony'
p23
F0.6909090909090909
tp24
a(S'2014 08 15'
p25
S'independence day'
p26
F0.40249554367201423
tp27
a(S'2014 09 05'
p28
S'interaction with students on teachers day'
p29
F0.6064030131826742
tp30
a(S'2014 09 05'
p31
S'visit of prime minister of australia'
p32
F0.5813953488372093
tp33
a(S'2014 09 18'
p34
S'visit of president of china'
p35
F0.6336633663366337
tp36
a(S'2014 09 27'
p37
S'global citizens festival , new york'
p38
F0.7746478873239436
tp39
a(S'2014 09 30'
p40
S'joint press statement with president of usa'
p41
F0.7015503875968992
tp42
a(S'2014 10 02'
p43
S'launch of swachhata mission'
p44
F0.5256008359456635
tp45
a(S'2014 10 03'
p46
S'mann ki baat'
p47
F0.5749656121045392
tp48
a(S'2014 10 13'
p49
S'sansad adarsh gram yojana'
p50
F0.5148342059336823
tp51
a(S'2014 10 28'
p52
S'visit of prime minister of vietnam'
p53
F0.6840659340659341
tp54
a(S'2014 11 02'
p55
S'mann ki baat'
p56
F0.6066584463625154
tp57
a(S'2014 11 07'
p58
S'saansad adarsh gram event , varanasi'
p59
F0.5595854922279793
tp60
a(S'2014 11 08'
p61
S'swachh bharat abhiyan at assi ghat , varanasi'
p62
F0.697841726618705
tp63
a(S'2014 11 09'
p64
S'world ayurveda conference'
p65
F0.5402465554749819
tp66
a(S'2014 11 12'
p67
S'asean submit'
p68
F0.6740576496674058
tp69
a(S'2014 11 12'
p70
S'indian-asean summit'
p71
F0.7438423645320197
tp72
a(S'2014 11 13'
p73
S'adress to the indian community'
p74
F0.6793103448275862
tp75
a(S'2014 11 13'
p76
S'east asia submit'
p77
F0.7633587786259541
tp78
a(S'2014 11 15'
p79
S'brics leaders meeting'
p80
F0.8449612403100775
tp81
a(S'2014 11 16'
p82
S'civic reception'
p83
F0.7355371900826446
tp84
a(S'2014 11 17'
p85
S'business meeting with indian and australian businessmen'
p86
F0.639344262295082
tp87
a(S'2014 11 18'
p88
S'address at the reception'
p89
F0.7248322147651007
tp90
a(S'2014 11 18'
p91
S'joint session of australian parliament'
p92
F0.6246851385390428
tp93
a(S'2014 11 18'
p94
S'statement to media in australia'
p95
F0.6893617021276596
tp96
a(S'2014 11 19'
p97
S'address to fiji parliament'
p98
F0.6263888888888889
tp99
a(S'2014 11 19'
p100
S'pacific island leaders meeting'
p101
F0.6569767441860466
tp102
a(S'2014 11 19'
p103
S'statement to media'
p104
F0.697508896797153
tp105
a(S'2014 11 26'
p106
S'saarc summit'
p107
F0.616580310880829
tp108
a(S'2014 11 29'
p109
S'flagging off train from meghalaya to guwahati'
p110
F0.5506756756756757
tp111
a(S'2014 11 30'
p112
S'conference of director general/inspector general of police , guwahati'
p113
F0.6008771929824561
tp114
a(S'2014 11 30'
p115
S'sangai festival , manipur'
p116
F0.5777777777777777
tp117
a(S'2014 12 01'
p118
S'hornbill festival , nagaland'
p119
F0.6145038167938931
tp120
a(S'2014 12 01'
p121
S'ongc tripura company power plant'
p122
F0.51875
tp123
a(S'2014 12 11'
p124
S'visit of president of russia'
p125
F0.6684210526315789
tp126
a(S'2014 12 11'
p127
S'world diamond conference , delhi'
p128
F0.572972972972973
tp129
a(S'2014 12 14'
p130
S'mann ki baat'
p131
F0.5590551181102362
tp132
a(S'2015 01 11'
p133
S'vibrant gujarat summit'
p134
F0.5949152542372882
tp135
a(S'2015 01 16'
p136
S'economic times global business summit'
p137
F0.5862068965517242
tp138
a(S'2015 01 27'
p139
S'mann ki baat with barack obama'
p140
F0.5849420849420849
tp141
a(S'2015 02 16'
p142
S'visit of president of sri lanka'
p143
F0.6805111821086263
tp144
a(S'2015 02 17'
p145
S'elevation of two saints in kerala'
p146
F0.6673511293634496
tp147
a(S'2015 02 18'
p148
S'aero india show , bangalore'
p149
F0.5734463276836158
tp150
a(S'2015 02 22'
p151
S'mann ki baat'
p152
F0.5046382189239332
tp153
a(S'2015 03 03'
p154
S'motion of thanks to presidents address in rajya sabha'
p155
F0.4183240952070427
tp156
a(S'2015 03 08'
p157
S'international womens day'
p158
F0.7862595419847328
tp159
a(S'2015 03 11'
p160
S'joint press statement with president of sychelles'
p161
F0.6310432569974554
tp162
a(S'2015 03 12'
p163
S'national assembly of mauritius'
p164
F0.6014234875444839
tp165
a(S'2015 03 12'
p166
S'commissioning of coast ship , barracuda'
p167
F0.5739385065885798
tp168
a(S'2015 03 13'
p169
S'address to business community in sri lanka'
p170
F0.6188679245283019
tp171
a(S'2015 03 13'
p172
S'address to parliament of sri lanka'
p173
F0.5647181628392485
tp174
a(S'2015 03 13'
p175
S'joint press statement with president of sri lanka'
p176
F0.6932367149758455
tp177
a(S'2015 03 22'
p178
S'mann ki baat to farmers'
p179
F0.4120095124851368
tp180
a(S'2015 04 10'
p181
S'address to unesco'
p182
F0.5926773455377574
tp183
a(S'2015 04 12'
p184
S'inauguration of hannover messe'
p185
F0.6553323029366306
tp186
a(S'2015 04 13'
p187
S'indo-german business summit , hannover'
p188
F0.6918819188191881
tp189
a(S'2015 04 14'
p190
S'joint press with german chancellor'
p191
F0.5839243498817966
tp192
a(S'2015 04 15'
p193
S'joint press statement with prime minister of canada'
p194
F0.6175710594315246
tp195
a(S'2015 04 26'
p196
S'mann ki baat'
p197
F0.6086956521739131
tp198
a(S'2015 05 15'
p199
S'india china forum of state/provincial leaders'
p200
F0.6084210526315789
tp201
a(S'2015 05 15'
p202
S'joint press statement with chinese premier'
p203
F0.6962616822429907
tp204
a(S'2015 05 15'
p205
S'address at tsinghua university'
p206
F0.6091515729265968
tp207
a(S'2015 05 16'
p208
S'launch of centre for gandhian and indian studies at fudan university'
p209
F0.67828418230563
tp210
a(S'2015 05 17'
p211
S'banquet speech'
p212
F0.7235023041474655
tp213
a(S'2015 05 17'
p214
S'mongolian parliament'
p215
F0.5839002267573696
tp216
a(S'2015 05 17'
p217
S'joint press statement with mongolian prime minister'
p218
F0.6746268656716418
tp219
a(S'2015 05 18'
p220
S'press briefing with seoul president'
p221
F0.6140845070422536
tp222
a(S'2015 05 19'
p223
S'asian leadership conference seoul'
p224
F0.6626506024096386
tp225
a(S'2015 06 06'
p226
S'joint press with prime minister of bangladesh'
p227
F0.6563786008230453
tp228
a(S'2015 06 19'
p229
S'visit of president of tanzania'
p230
F0.6385964912280702
tp231
a(S'2015 06 28'
p232
S'mann ki baat'
p233
F0.5465414175918019
tp234
a(S'2015 07 06'
p235
S'joint press breifing with the president of uzbekistan'
p236
F0.7266881028938906
tp237
a(S'2015 07 07'
p238
S'address at nazarbayev university'
p239
F0.5578300921187308
tp240
a(S'2015 07 08'
p241
S'joint press statement'
p242
F0.6832460732984293
tp243
a(S'2015 07 11'
p244
S'joint press statement in turkmenistan'
p245
F0.6523076923076924
tp246
a(S'2015 07 13'
p247
S'tajikistan visit'
p248
F0.6845637583892618
tp249
a(S'2015 07 26'
p250
S'mann ki baat'
p251
F0.5931232091690545
tp252
a(S'2015 08 03'
p253
S'historic agreement between government and nscn'
p254
F0.674863387978142
tp255
a(S'2015 08 05'
p256
S'media briefing with mozambique president'
p257
F0.645945945945946
tp258
a(S'2015 08 15'
p259
S'independence day'
p260
F0.411764705882353
tp261
a(S'2015 08 21'
p262
S'forum for india pacific island countries - closing remarks , jaipur'
p263
F0.6229235880398671
tp264
a(S'2015 08 21'
p265
S'forum for india pacific island countries - opening remarks , jaipur'
p266
F0.622429906542056
tp267
a(S'2015 08 25'
p268
S'united nations post 2015 development agenda'
p269
F0.6703910614525139
tp270
a(S'2015 08 26'
p271
S'joint statement with president michel of seychelles'
p272
F0.6613924050632912
tp273
a(S'2015 08 26'
p274
S'digital india dinner'
p275
F0.6550387596899224
tp276
a(S'2015 08 27'
p277
S'call to action summit'
p278
F0.571767497034401
tp279
a(S'2015 08 30'
p280
S'mann ki baat'
p281
F0.575046904315197
tp282
a(S'2015 09 03'
p283
S'samvad - global hindu buddhist initiative'
p284
F0.6204756980351603
tp285
a(S'2015 09 05'
p286
S'global hindu buddhist conclave'
p287
F0.6136680613668061
tp288
a(S'2015 09 15'
p289
S'joint press with sri lankan prime minister'
p290
F0.6538461538461539
tp291
a(S'2015 09 20'
p292
S'mann ki baat'
p293
F0.5257870060281312
tp294
a(S'2015 09 26'
p295
S'g4 summit new york'
p296
F0.7839195979899498
tp297
a(S'2015 09 27'
p298
S'india us startup connect'
p299
F0.6198675496688741
tp300
a(S'2015 09 28'
p301
S'joint press statement with president obama'
p302
F0.6656891495601174
tp303
a(S'2015 09 28'
p304
S'un peacekeeping summit'
p305
F0.6826568265682658
tp306
a(S'2015 10 05'
p307
S'press meeting with angela markel'
p308
F0.6893732970027248
tp309
a(S'2015 10 06'
p310
S'business forum - indo german , bangalore'
p311
F0.673768308921438
tp312
a(S'2015 10 23'
p313
S'india africa forum summit - journalists'
p314
F0.5562913907284768
tp315
a(S'2015 10 25'
p316
S'mann ki baat'
p317
F0.4894444444444444
tp318
a(S'2015 10 29'
p319
S'india africa forum summit'
p320
F0.5912162162162162
tp321
a(S'2015 11 06'
p322
S'delhi economics conclave'
p323
F0.56664674237896
tp324
a(S'2015 11 12'
p325
S'british parliament'
p326
F0.6630109670987039
tp327
a(S'2015 11 12'
p328
S'business meeting'
p329
F0.6481700118063755
tp330
a(S'2015 11 15'
p331
S'brics'
p332
F0.7769784172661871
tp333
a(S'2015 11 15'
p334
S'g20 brics leaders summit'
p335
F0.6646884272997032
tp336
a(S'2015 11 15'
p337
S'g20 working lunch on development and climate change'
p338
F0.6721698113207547
tp339
a(S'2015 11 15'
p340
S'g20 working session on inclusive growth'
p341
F0.7195121951219512
tp342
a(S'2015 11 18'
p343
S'global focal point conference on asset recovery'
p344
F0.6365853658536585
tp345
a(S'2015 11 21'
p346
S'asean businees and investment summit'
p347
F0.6421471172962226
tp348
a(S'2015 11 21'
p349
S'asean-india summit'
p350
F0.6580226904376013
tp351
a(S'2015 11 22'
p352
S'asean'
p353
F0.6594005449591281
tp354
a(S'2015 11 22'
p355
S'indian community reception , malaysia'
p356
F0.5506958250497018
tp357
a(S'2015 11 23'
p358
S'malysia visit'
p359
F0.7155172413793103
tp360
a(S'2015 11 23'
p361
S'singapore lecture'
p362
F0.5601374570446735
tp363
a(S'2015 11 24'
p364
S'singapore economic convention'
p365
F0.6150049358341559
tp366
a(S'2015 11 30'
p367
S'climate change summit'
p368
F0.7449664429530201
tp369
a(S'2015 11 30'
p370
S'indian pavilion - climate change'
p371
F0.6693163751987281
tp372
a(S'2015 11 30'
p373
S'mission innovation - climate change'
p374
F0.7428571428571428
tp375
a(S'2015 12 15'
p376
S'combined commanders conference on ins vikramaditya'
p377
F0.5947521865889213
tp378
a(S'2015 12 25'
p379
S'inauguration of new parliament building in afghanistan'
p380
F0.601980198019802
tp381
a(S'2015 12 25'
p382
S'joint press with russian president'
p383
F0.6705882352941177
tp384
a(S'2015 12 27'
p385
S'mann ki baat'
p386
F0.5179282868525896
tp387
a(S'2016 01 03'
p388
S'indian science congress'
p389
F0.5472636815920398
tp390
a(S'2016 01 03'
p391
S'international conference on frontiers in yoga research'
p392
F0.6466973886328725
tp393
a(S'2016 01 19'
p394
S'tokyo meet'
p395
F0.6989795918367346
tp396
a(S'2016 01 29'
p397
S'economics times business summit'
p398
F0.5428945645055665
tp399
a(S'2016 02 02'
p400
S'global ayurvedic conference , kerala'
p401
F0.5797807551766139
tp402
a(S'2016 02 02'
p403
S'inauguration of medical college , kerala'
p404
F0.574468085106383
tp405
a(S'2016 02 05'
p406
S'south asian games'
p407
F0.6417233560090703
tp408
a(S'2016 02 07'
p409
S'international fleet review , vishakhapatnam'
p410
F0.5955334987593052
tp411
a(S'2016 02 13'
p412
S'make in india'
p413
F0.602051282051282
tp414
a(S'2016 02 21'
p415
S'pradhan mantri awas yojana'
p416
F0.5513595166163142
tp417
a(S'2016 02 25'
p418
S'railway budget'
p419
F0.7294117647058824
tp420
a(S'2016 02 28'
p421
S'mann ki baat'
p422
F0.48275862068965514
tp423
a(S'2016 02 29'
p424
S'remarks on budget'
p425
F0.6112531969309463
tp426
a(S'2016 03 04'
p427
S'international conference on rule of law'
p428
F0.6636851520572451
tp429
a(S'2016 03 12'
p430
S'mof imf conference'
p431
F0.5910390848427074
tp432
a(S'2016 03 26'
p433
S'world islamic sufi conference'
p434
F0.5591666666666667
tp435
a(S'2016 03 27'
p436
S'mann ki baat'
p437
F0.5299035369774919
tp438
a(S'2016 03 30'
p439
S'joint press with prime minister charles'
p440
F0.6929577464788732
tp441
a(S'2016 04 12'
p442
S'tiger conservation conference'
p443
F0.5929721815519766
tp444
a(S'2016 04 14'
p445
S'maritime india summit'
p446
F0.571551724137931
tp447
a(S'2016 05 17'
p448
S'joint statement with thailand prime minister'
p449
F0.6737967914438503
tp450
a(S'2016 05 22'
p451
S'golden jubilee of ramdhari singh dinkar'
p452
F0.6188524590163934
tp453
a(S'2016 05 23'
p454
S'cultural event iran'
p455
F0.6744730679156908
tp456
a(S'2016 05 23'
p457
S'joint press statement india and iran'
p458
F0.75
tp459
a(S'2016 05 23'
p460
S'trilateral summit of iran afghanistan india'
p461
F0.6824034334763949
tp462
a(S'2016 05 27'
p463
S'north east india'
p464
F0.5268691588785047
tp465
a(S'2016 05 27'
p466
S'plenary session of north east council'
p467
F0.5475113122171946
tp468
a(S'2016 05 31'
p469
S'mann ki baat'
p470
F0.505957108816521
tp471
a(S'2016 06 04'
p472
S'inaugration of salma dam'
p473
F0.6181353767560664
tp474
a(S'2016 06 08'
p475
S'us congress'
p476
F0.6168148746968473
tp477
a(S'2016 06 08'
p478
S'us india business council'
p479
F0.6194444444444445
tp480
a(S'2016 06 09'
p481
S'joint press statement with mexican president'
p482
F0.7046413502109705
tp483
a(S'2016 06 24'
p484
S'sco summit'
p485
F0.6731301939058172
tp486
a(S'2016 06 26'
p487
S'mann ki baat'
p488
F0.5380742605412209
tp489
a(S'2016 07 07'
p490
S'banquet speech by prime minister during his visit to mozambique'
p491
F0.7627118644067796
tp492
a(S'2016 07 08'
p493
S'south africa business meet'
p494
F0.6423248882265276
tp495
a(S'2016 07 08'
p496
S'south africa backs indias bid to join nuclear suppliers group'
p497
F0.648989898989899
tp498
a(S'2016 07 11'
p499
S'india kenya business forum'
p500
F0.673972602739726
tp501
a(S'2016 07 11'
p502
S'kenya visit'
p503
F0.78125
tp504
a(S'2016 07 11'
p505
S'university of nairobi'
p506
F0.5992907801418439
tp507
a(S'2016 07 16'
p508
S'meeting of inter state council , delhi'
p509
F0.6385911179173047
tp510
a(S'2016 07 22'
p511
S'unveils statue of late mahant adityanath'
p512
F0.7272727272727273
tp513
a(S'2016 08 12'
p514
S'all party meeting on jammu and kashmir'
p515
F0.5813648293963255
tp516
a(S'2016 08 15'
p517
S'independence day'
p518
F0.4118604651162791
tp519
a(S'2016 08 22'
p520
S'afghanistan visit'
p521
F0.7255639097744361
tp522
a(S'2016 08 26'
p523
S'niti aayog'
p524
F0.6517311608961304
tp525
a.